target datalayout = "e-m:e-p270:32:32-p271:32:32-p272:64:64-i64:64-i128:128-f80:128-n8:16:32:64-S128"
target triple = "x86_64-pc-linux-gnu"

%class.DCmdWithParser = type { %class.DCmd.base, %class.DCmdParser }
%class.DCmd.base = type <{ ptr, ptr, i8 }>
%class.DCmdParser = type { ptr, ptr }
%class.DCmdArgument = type { %class.GenDCmdArgument.base, i8, [4 x i8] }
%class.GenDCmdArgument.base = type <{ ptr, ptr, ptr, ptr, ptr, ptr, i8, i8, i8 }>
%class.DCmdArgument.96 = type { %class.GenDCmdArgument.base, ptr }
%class.DCmd = type <{ ptr, ptr, i8, [7 x i8] }>
%class.GenDCmdArgument = type <{ ptr, ptr, ptr, ptr, ptr, ptr, i8, i8, i8, [5 x i8] }>
%class.HeapDumpDCmd = type { %class.DCmdWithParser, %class.DCmdArgument.96, %class.DCmdArgument, %class.DCmdArgument.100, %class.DCmdArgument, %class.DCmdArgument.100 }
%class.DCmdArgument.100 = type { %class.GenDCmdArgument.base, i64 }
%class.HeapDumper = type { ptr, i8, i8, [6 x i8], %class.elapsedTimer }
%class.elapsedTimer = type <{ i64, i64, i8, [7 x i8] }>

@.str.58 = private unnamed_addr constant [42 x i8] c"Compression level out of range (1-9): %ld\00", align 1
@.str.59 = private unnamed_addr constant [41 x i8] c"Invalid number of parallel dump threads.\00", align 1
@_ZN2os31_initial_active_processor_countE = external global i32, align 4

; Function Attrs: mustprogress nounwind uwtable
define linkonce_odr hidden void @_ZN12elapsedTimer5resetEv(ptr noundef nonnull align 8 dereferenceable(17) %0) #1 comdat align 2 {
  %2 = alloca ptr, align 8
  store ptr %0, ptr %2, align 8
  %3 = load ptr, ptr %2, align 8
  %4 = getelementptr inbounds %class.elapsedTimer, ptr %3, i32 0, i32 0
  store i64 0, ptr %4, align 8
  ret void
}

; Function Attrs: mustprogress nounwind uwtable
define linkonce_odr hidden void @_ZN12elapsedTimerC2Ev(ptr noundef nonnull align 8 dereferenceable(17) %0) unnamed_addr #1 comdat align 2 {
  %2 = alloca ptr, align 8
  store ptr %0, ptr %2, align 8
  %3 = load ptr, ptr %2, align 8
  %4 = getelementptr inbounds %class.elapsedTimer, ptr %3, i32 0, i32 2
  store i8 0, ptr %4, align 8
  call void @_ZN12elapsedTimer5resetEv(ptr noundef nonnull align 8 dereferenceable(17) %3)
  ret void
}

; Function Attrs: mustprogress nounwind uwtable
define linkonce_odr hidden noundef i32 @_Z4MAX2IjET_S0_S0_(i32 noundef %0, i32 noundef %1) #1 comdat {
  %3 = alloca i32, align 4
  %4 = alloca i32, align 4
  store i32 %0, ptr %3, align 4
  store i32 %1, ptr %4, align 4
  %5 = load i32, ptr %3, align 4
  %6 = load i32, ptr %4, align 4
  %7 = icmp ugt i32 %5, %6
  br i1 %7, label %8, label %10

8:                                                ; preds = %2
  %9 = load i32, ptr %3, align 4
  br label %12

10:                                               ; preds = %2
  %11 = load i32, ptr %4, align 4
  br label %12

12:                                               ; preds = %10, %8
  %13 = phi i32 [ %9, %8 ], [ %11, %10 ]
  ret i32 %13
}

; Function Attrs: mustprogress nounwind uwtable
define linkonce_odr hidden noundef i32 @_ZN2os30initial_active_processor_countEv() #1 comdat align 2 {
  %1 = load i32, ptr @_ZN2os31_initial_active_processor_countE, align 4
  ret i32 %1
}

; Function Attrs: mustprogress nounwind uwtable
define linkonce_odr hidden noundef ptr @_ZNK12DCmdArgumentIPcE5valueEv(ptr noundef nonnull align 8 dereferenceable(64) %0) #1 comdat align 2 {
  %2 = alloca ptr, align 8
  store ptr %0, ptr %2, align 8
  %3 = load ptr, ptr %2, align 8
  %4 = getelementptr inbounds %class.DCmdArgument.96, ptr %3, i32 0, i32 1
  %5 = load ptr, ptr %4, align 8
  ret ptr %5
}

; Function Attrs: mustprogress nounwind uwtable
define linkonce_odr hidden void @_ZN10HeapDumperC2Eb(ptr noundef nonnull align 8 dereferenceable(40) %0, i1 noundef zeroext %1) unnamed_addr #1 comdat align 2 {
  %3 = alloca ptr, align 8
  %4 = alloca i8, align 1
  store ptr %0, ptr %3, align 8
  %5 = zext i1 %1 to i8
  store i8 %5, ptr %4, align 1
  %6 = load ptr, ptr %3, align 8
  %7 = getelementptr inbounds %class.HeapDumper, ptr %6, i32 0, i32 0
  store ptr null, ptr %7, align 8
  %8 = getelementptr inbounds %class.HeapDumper, ptr %6, i32 0, i32 1
  %9 = load i8, ptr %4, align 1
  %10 = trunc i8 %9 to i1
  %11 = zext i1 %10 to i8
  store i8 %11, ptr %8, align 8
  %12 = getelementptr inbounds %class.HeapDumper, ptr %6, i32 0, i32 2
  store i8 0, ptr %12, align 1
  %13 = getelementptr inbounds %class.HeapDumper, ptr %6, i32 0, i32 4
  call void @_ZN12elapsedTimerC2Ev(ptr noundef nonnull align 8 dereferenceable(17) %13)
  ret void
}

; Function Attrs: mustprogress nounwind uwtable
define linkonce_odr hidden noundef zeroext i1 @_ZNK12DCmdArgumentIbE5valueEv(ptr noundef nonnull align 8 dereferenceable(52) %0) #1 comdat align 2 {
  %2 = alloca ptr, align 8
  store ptr %0, ptr %2, align 8
  %3 = load ptr, ptr %2, align 8
  %4 = getelementptr inbounds %class.DCmdArgument, ptr %3, i32 0, i32 1
  %5 = load i8, ptr %4, align 1
  %6 = trunc i8 %5 to i1
  ret i1 %6
}

; Function Attrs: mustprogress nounwind uwtable
define linkonce_odr hidden noundef ptr @_ZNK4DCmd6outputEv(ptr noundef nonnull align 8 dereferenceable(17) %0) #1 comdat align 2 {
  %2 = alloca ptr, align 8
  store ptr %0, ptr %2, align 8
  %3 = load ptr, ptr %2, align 8
  %4 = getelementptr inbounds %class.DCmd, ptr %3, i32 0, i32 1
  %5 = load ptr, ptr %4, align 8
  ret ptr %5
}

; Function Attrs: mustprogress nounwind uwtable
define linkonce_odr hidden noundef i64 @_ZNK12DCmdArgumentIlE5valueEv(ptr noundef nonnull align 8 dereferenceable(64) %0) #1 comdat align 2 {
  %2 = alloca ptr, align 8
  store ptr %0, ptr %2, align 8
  %3 = load ptr, ptr %2, align 8
  %4 = getelementptr inbounds %class.DCmdArgument.100, ptr %3, i32 0, i32 1
  %5 = load i64, ptr %4, align 8
  ret i64 %5
}

; Function Attrs: mustprogress nounwind uwtable
define linkonce_odr hidden noundef zeroext i1 @_ZNK15GenDCmdArgument6is_setEv(ptr noundef nonnull align 8 dereferenceable(51) %0) #1 comdat align 2 {
  %2 = alloca ptr, align 8
  store ptr %0, ptr %2, align 8
  %3 = load ptr, ptr %2, align 8
  %4 = getelementptr inbounds %class.GenDCmdArgument, ptr %3, i32 0, i32 6
  %5 = load i8, ptr %4, align 8
  %6 = trunc i8 %5 to i1
  ret i1 %6
}

; Function Attrs: mustprogress nounwind uwtable
define linkonce_odr hidden noundef i32 @_ZN10HeapDumper27default_num_of_dump_threadsEv() #1 comdat align 2 {
  %1 = call noundef i32 @_ZN2os30initial_active_processor_countEv()
  %2 = mul i32 %1, 3
  %3 = udiv i32 %2, 8
  %4 = call noundef i32 @_Z4MAX2IjET_S0_S0_(i32 noundef 1, i32 noundef %3)
  ret i32 %4
}

; Function Attrs: mustprogress nounwind uwtable
define hidden void @_ZN12HeapDumpDCmd7executeE10DCmdSourceP10JavaThread(ptr noundef nonnull align 8 dereferenceable(344) %0, i32 noundef %1, ptr noundef %2) unnamed_addr #1 align 2 {
  %4 = alloca ptr, align 8
  %5 = alloca i32, align 4
  %6 = alloca ptr, align 8
  %7 = alloca i64, align 8
  %8 = alloca i64, align 8
  %9 = alloca %class.HeapDumper, align 8
  store ptr %0, ptr %4, align 8
  store i32 %1, ptr %5, align 4
  store ptr %2, ptr %6, align 8
  %10 = load ptr, ptr %4, align 8
  store i64 -1, ptr %7, align 8
  %11 = call noundef i32 @_ZN10HeapDumper27default_num_of_dump_threadsEv()
  %12 = zext i32 %11 to i64
  store i64 %12, ptr %8, align 8
  %13 = getelementptr inbounds %class.HeapDumpDCmd, ptr %10, i32 0, i32 3
  %14 = call noundef zeroext i1 @_ZNK15GenDCmdArgument6is_setEv(ptr noundef nonnull align 8 dereferenceable(51) %13)
  br i1 %14, label %15, label %27

15:                                               ; preds = %3
  %16 = getelementptr inbounds %class.HeapDumpDCmd, ptr %10, i32 0, i32 3
  %17 = call noundef i64 @_ZNK12DCmdArgumentIlE5valueEv(ptr noundef nonnull align 8 dereferenceable(64) %16)
  store i64 %17, ptr %7, align 8
  %18 = load i64, ptr %7, align 8
  %19 = icmp slt i64 %18, 1
  br i1 %19, label %23, label %20

20:                                               ; preds = %15
  %21 = load i64, ptr %7, align 8
  %22 = icmp sgt i64 %21, 9
  br i1 %22, label %23, label %26

23:                                               ; preds = %20, %15
  %24 = call noundef ptr @_ZNK4DCmd6outputEv(ptr noundef nonnull align 8 dereferenceable(17) %10)
  %25 = load i64, ptr %7, align 8
  call void (ptr, ptr, ...) @_ZN12outputStream8print_crEPKcz(ptr noundef nonnull align 8 dereferenceable(56) %24, ptr noundef @.str.58, i64 noundef %25)
  br label %57

26:                                               ; preds = %20
  br label %27

27:                                               ; preds = %26, %3
  %28 = getelementptr inbounds %class.HeapDumpDCmd, ptr %10, i32 0, i32 5
  %29 = call noundef zeroext i1 @_ZNK15GenDCmdArgument6is_setEv(ptr noundef nonnull align 8 dereferenceable(51) %28)
  br i1 %29, label %30, label %43

30:                                               ; preds = %27
  %31 = getelementptr inbounds %class.HeapDumpDCmd, ptr %10, i32 0, i32 5
  %32 = call noundef i64 @_ZNK12DCmdArgumentIlE5valueEv(ptr noundef nonnull align 8 dereferenceable(64) %31)
  store i64 %32, ptr %8, align 8
  %33 = load i64, ptr %8, align 8
  %34 = icmp slt i64 %33, 0
  br i1 %34, label %35, label %37

35:                                               ; preds = %30
  %36 = call noundef ptr @_ZNK4DCmd6outputEv(ptr noundef nonnull align 8 dereferenceable(17) %10)
  call void (ptr, ptr, ...) @_ZN12outputStream8print_crEPKcz(ptr noundef nonnull align 8 dereferenceable(56) %36, ptr noundef @.str.59)
  br label %57

37:                                               ; preds = %30
  %38 = load i64, ptr %8, align 8
  %39 = icmp eq i64 %38, 0
  br i1 %39, label %40, label %41

40:                                               ; preds = %37
  store i64 1, ptr %8, align 8
  br label %41

41:                                               ; preds = %40, %37
  br label %42

42:                                               ; preds = %41
  br label %43

43:                                               ; preds = %42, %27
  %44 = getelementptr inbounds %class.HeapDumpDCmd, ptr %10, i32 0, i32 2
  %45 = call noundef zeroext i1 @_ZNK12DCmdArgumentIbE5valueEv(ptr noundef nonnull align 8 dereferenceable(52) %44)
  %46 = xor i1 %45, true
  call void @_ZN10HeapDumperC2Eb(ptr noundef nonnull align 8 dereferenceable(40) %9, i1 noundef zeroext %46)
  %47 = getelementptr inbounds %class.HeapDumpDCmd, ptr %10, i32 0, i32 1
  %48 = call noundef ptr @_ZNK12DCmdArgumentIPcE5valueEv(ptr noundef nonnull align 8 dereferenceable(64) %47)
  %49 = call noundef ptr @_ZNK4DCmd6outputEv(ptr noundef nonnull align 8 dereferenceable(17) %10)
  %50 = load i64, ptr %7, align 8
  %51 = trunc i64 %50 to i32
  %52 = getelementptr inbounds %class.HeapDumpDCmd, ptr %10, i32 0, i32 4
  %53 = call noundef zeroext i1 @_ZNK12DCmdArgumentIbE5valueEv(ptr noundef nonnull align 8 dereferenceable(52) %52)
  %54 = load i64, ptr %8, align 8
  %55 = trunc i64 %54 to i32
  %56 = call noundef i32 @_ZN10HeapDumper4dumpEPKcP12outputStreamibj(ptr noundef nonnull align 8 dereferenceable(40) %9, ptr noundef %48, ptr noundef %49, i32 noundef %51, i1 noundef zeroext %53, i32 noundef %55)
  call void @_ZN10HeapDumperD1Ev(ptr noundef nonnull align 8 dereferenceable(40) %9) #11
  br label %57

57:                                               ; preds = %43, %35, %23
  ret void
}