; Function Attrs: mustprogress nounwind uwtable
define hidden void @_ZN12HeapDumpDCmd7executeE10DCmdSourceP10JavaThread(ptr nocapture noundef nonnull readonly align 8 dereferenceable(344) %0, i32 %1, ptr nocapture readnone %2) unnamed_addr #0 align 2 {
  %4 = alloca %class.HeapDumper, align 8
  %5 = load i32, ptr @_ZN2os31_initial_active_processor_countE, align 4
  %6 = mul i32 %5, 3
  %7 = lshr i32 %6, 3
  %8 = tail call noundef i32 @llvm.umax.i32(i32 %7, i32 1)
  %9 = getelementptr inbounds i8, ptr %0, i64 208
  %10 = load i8, ptr %9, align 8
  %11 = trunc i8 %10 to i1
  br i1 %11, label %12, label %19

12:                                               ; preds = %3
  %13 = getelementptr inbounds i8, ptr %0, i64 216
  %14 = load i64, ptr %13, align 8
  %15 = add i64 %14, -10
  %or.cond = icmp ult i64 %15, -9
  br i1 %or.cond, label %16, label %19

16:                                               ; preds = %12
  %17 = getelementptr inbounds i8, ptr %0, i64 8
  %18 = load ptr, ptr %17, align 8
  tail call void (ptr, ptr, ...) @_ZN12outputStream8print_crEPKcz(ptr noundef nonnull align 8 dereferenceable(56) %18, ptr noundef nonnull @.str.58, i64 noundef %14) #17
  br label %50

19:                                               ; preds = %12, %3
  %.08 = phi i64 [ %14, %12 ], [ -1, %3 ]
  %20 = getelementptr inbounds i8, ptr %0, i64 328
  %21 = load i8, ptr %20, align 8
  %22 = trunc i8 %21 to i1
  br i1 %22, label %23, label %32

23:                                               ; preds = %19
  %24 = getelementptr inbounds i8, ptr %0, i64 336
  %25 = load i64, ptr %24, align 8
  %26 = icmp slt i64 %25, 0
  br i1 %26, label %27, label %30

27:                                               ; preds = %23
  %28 = getelementptr inbounds i8, ptr %0, i64 8
  %29 = load ptr, ptr %28, align 8
  tail call void (ptr, ptr, ...) @_ZN12outputStream8print_crEPKcz(ptr noundef nonnull align 8 dereferenceable(56) %29, ptr noundef nonnull @.str.59) #17
  br label %50

30:                                               ; preds = %23
  %spec.store.select = tail call i64 @llvm.umax.i64(i64 %25, i64 1)
  %31 = trunc i64 %spec.store.select to i32
  br label %32

32:                                               ; preds = %30, %19
  %.0 = phi i32 [ %31, %30 ], [ %8, %19 ]
  %33 = getelementptr inbounds i8, ptr %0, i64 155
  %34 = load i8, ptr %33, align 1
  %35 = and i8 %34, 1
  %36 = xor i8 %35, 1
  store ptr null, ptr %4, align 8
  %37 = getelementptr inbounds i8, ptr %4, i64 8
  store i8 %36, ptr %37, align 8
  %38 = getelementptr inbounds i8, ptr %4, i64 9
  store i8 0, ptr %38, align 1
  %39 = getelementptr inbounds i8, ptr %4, i64 16
  %40 = getelementptr inbounds i8, ptr %4, i64 32
  store i8 0, ptr %40, align 8
  store i64 0, ptr %39, align 8
  %41 = getelementptr inbounds i8, ptr %0, i64 96
  %42 = load ptr, ptr %41, align 8
  %43 = getelementptr inbounds i8, ptr %0, i64 8
  %44 = load ptr, ptr %43, align 8
  %45 = trunc i64 %.08 to i32
  %46 = getelementptr inbounds i8, ptr %0, i64 275
  %47 = load i8, ptr %46, align 1
  %48 = trunc i8 %47 to i1
  %49 = call noundef i32 @_ZN10HeapDumper4dumpEPKcP12outputStreamibj(ptr noundef nonnull align 8 dereferenceable(40) %4, ptr noundef %42, ptr noundef %44, i32 noundef %45, i1 noundef zeroext %48, i32 noundef %.0) #17
  call void @_ZN10HeapDumperD1Ev(ptr noundef nonnull align 8 dereferenceable(40) %4) #17
  br label %50

50:                                               ; preds = %32, %27, %16
  ret void
}